; Function Attrs: mustprogress nounwind uwtable
define internal void @_ZN12_GLOBAL__N_125VariadicMethodTypeCheckerD0Ev(ptr noundef nonnull align 8 dereferenceable(88) %0) unnamed_addr #0 align 2 {
  store ptr getelementptr inbounds inrange(-16, 32) (i8, ptr @_ZTVN12_GLOBAL__N_125VariadicMethodTypeCheckerE, i64 16), ptr %0, align 8
  %2 = getelementptr inbounds nuw i8, ptr %0, i64 80
  %3 = load ptr, ptr %2, align 8
  %.not.i.i = icmp eq ptr %3, null
  br i1 %.not.i.i, label %_ZN12_GLOBAL__N_125VariadicMethodTypeCheckerD2Ev.exit, label %_ZNKSt14default_deleteIN5clang4ento7BugTypeEEclEPS2_.exit.i.i

_ZNKSt14default_deleteIN5clang4ento7BugTypeEEclEPS2_.exit.i.i: ; preds = %1
  %4 = load ptr, ptr %3, align 8
  %5 = getelementptr inbounds i8, ptr %4, i64 16
  %6 = load ptr, ptr %5, align 8
  tail call void %6(ptr noundef nonnull align 8 dereferenceable(97) %3) #21
  br label %_ZN12_GLOBAL__N_125VariadicMethodTypeCheckerD2Ev.exit

_ZN12_GLOBAL__N_125VariadicMethodTypeCheckerD2Ev.exit: ; preds = %1, %_ZNKSt14default_deleteIN5clang4ento7BugTypeEEclEPS2_.exit.i.i
  store ptr null, ptr %2, align 8
  tail call void @_ZN5clang15ProgramPointTagD2Ev(ptr noundef nonnull align 8 dereferenceable(16) %0) #21
  tail call void @_ZdlPvm(ptr noundef nonnull %0, i64 noundef 88) #20
  ret void
}